target datalayout = "e-m:e-p270:32:32-p271:32:32-p272:64:64-i64:64-i128:128-f80:128-n8:16:32:64-S128"
target triple = "x86_64-pc-linux-gnu"

%struct.redisServer = type { i32, i64, ptr, ptr, ptr, i32, i32, i32, i32, i32, ptr, ptr, ptr, ptr, ptr, i32, i32, i32, i32, i64, i32, i32, i32, i32, ptr, i32, i32, [41 x i8], i32, i64, i32, i32, i32, ptr, ptr, i32, i32, i64, ptr, ptr, ptr, ptr, [2 x i32], i32, i32, i32, i32, i32, i32, [16 x ptr], i32, ptr, ptr, i32, [8 x %struct.connListener], i32, %struct.connListener, ptr, ptr, ptr, ptr, ptr, ptr, ptr, ptr, ptr, ptr, i32, ptr, i32, ptr, [3 x %struct.pause_event], [256 x i8], ptr, i64, i32, i32, [128 x i32], i32, i32, i64, i32, i32, i32, i32, i32, i64, i64, i64, i64, i64, i64, i64, i64, i64, i64, double, i64, i64, i64, i64, i64, i64, i64, i64, i64, i64, i64, i64, i64, i64, i64, i64, i64, i64, i64, i64, i64, double, i64, i64, i64, i64, i64, ptr, i64, i64, i64, %struct.malloc_stats, i64, i64, i64, i64, i64, i64, i64, i64, i64, i64, i64, i64, double, [4 x i64], i64, i64, i64, i64, [128 x i64], [128 x i64], i64, i64, [7 x %struct.anon], i64, i64, i64, i64, i64, i64, [4 x %struct.durationStats], i32, i32, i32, i32, i32, i32, i32, i32, i32, i32, i32, i32, i64, i32, i32, i32, i32, i64, i64, i32, i32, i32, i32, i32, ptr, [3 x %struct.clientBufferLimitsConfig], i32, i32, i32, ptr, i32, i32, i32, i32, i32, i32, ptr, ptr, i32, i32, i64, i64, i64, i64, i64, i32, i32, ptr, i32, i32, i64, i64, i64, i64, i64, i32, i32, i64, i32, i32, i32, i32, i32, i32, i32, i32, ptr, i32, i64, i64, i64, i64, i32, ptr, i32, ptr, i32, i32, i32, i64, i64, i64, i64, i32, i32, i32, i32, i32, i32, ptr, i32, i32, ptr, i32, i32, i32, [2 x i32], i32, %struct.redisOpArray, i32, ptr, i32, ptr, i32, i32, i32, i32, i32, i32, i32, [41 x i8], [41 x i8], i64, i64, i64, i64, i32, i32, ptr, i64, i64, %struct.replDataBuf, i64, i64, i32, i32, i32, i32, i32, i32, i32, i32, i32, i64, ptr, i64, ptr, ptr, ptr, i32, i32, ptr, ptr, i32, i32, i32, i64, i64, i64, i64, ptr, ptr, i32, ptr, i64, i32, i32, i32, i64, i32, i32, i32, i32, ptr, i32, i32, [41 x i8], i64, i32, ptr, i32, i32, i64, i64, i32, i32, i32, i32, i32, i64, [3 x i32], i32, i32, i32, [10 x i32], ptr, ptr, i32, i64, ptr, ptr, i32, i32, i32, i32, i64, i64, i64, i64, i64, i64, i64, i64, i64, i64, i32, i32, i64, i64, i32, i64, i64, i64, i64, i64, ptr, ptr, i32, ptr, i32, i32, i32, i32, i64, i64, ptr, ptr, i32, i32, i32, i32, i32, ptr, ptr, ptr, i32, i32, i32, i32, i32, i32, i32, i64, i32, i32, i64, i32, i32, i32, i32, i32, i32, i32, i64, ptr, ptr, i64, ptr, i32, %struct.aclInfo, i32, i64, i32, i32, i32, %struct.redisTLSContextConfig, ptr, ptr, ptr, ptr, ptr, i64, i32, ptr, i32, i32, i32, i64, i32, ptr }
%struct.connListener = type { [16 x i32], i32, ptr, i32, i32, ptr, ptr }
%struct.pause_event = type { i32, i64 }
%struct.malloc_stats = type { i64, i64, i64, i64, i64, i64, i64, i64, i64, i64, i64 }
%struct.anon = type { i64, i64, [16 x i64], i32 }
%struct.durationStats = type { i64, i64, i64 }
%struct.clientBufferLimitsConfig = type { i64, i64, i64 }
%struct.redisOpArray = type { ptr, i32, i32 }
%struct.replDataBuf = type { ptr, i64, i64, i64, i64 }
%struct.aclInfo = type { i64, i64, i64, i64 }
%struct.redisTLSContextConfig = type { ptr, ptr, ptr, ptr, ptr, ptr, ptr, ptr, ptr, ptr, ptr, ptr, i32, i32, i32, i32 }
%struct._clusterNode = type { i64, [40 x i8], [40 x i8], i32, i64, [2048 x i8], ptr, i32, i32, i32, ptr, ptr, i64, i64, i64, i64, i64, i64, i64, i64, i64, [46 x i8], ptr, ptr, i32, i32, i32, ptr, ptr, ptr }
%struct.clusterState = type { ptr, i64, i32, i32, ptr, ptr, ptr, [16384 x ptr], [16384 x ptr], [16384 x ptr], [40 x i8], i64, i32, i32, i32, i64, i32, i64, ptr, i64, i32, i64, i32, [11 x i64], [11 x i64], i64, i64, [2048 x i8] }
%struct.list = type { ptr, ptr, ptr, ptr, ptr, i64 }
%struct.ConnectionType = type { ptr, ptr, ptr, ptr, ptr, ptr, ptr, ptr, ptr, ptr, ptr, ptr, ptr, ptr, ptr, ptr, ptr, ptr, ptr, ptr, ptr, ptr, ptr, ptr, ptr, ptr, ptr, ptr, ptr, ptr }
%struct.clusterLink = type { i64, ptr, ptr, i64, i64, ptr, i64, i64, ptr, i32 }
%struct.clusterMsgSendBlock = type { i64, i32, %struct.clusterMsg }
%struct.clusterMsg = type { [4 x i8], i32, i16, i16, i16, i16, i64, i64, i64, [40 x i8], [2048 x i8], [40 x i8], [46 x i8], i16, [30 x i8], i16, i16, i16, i8, [3 x i8], %union.clusterMsgData }
%union.clusterMsgData = type { %struct.anon.3 }
%struct.anon.3 = type { %struct.clusterMsgDataUpdate }
%struct.clusterMsgDataUpdate = type { i64, [40 x i8], [2048 x i8] }
%struct.connection = type { ptr, i32, i32, i32, i16, i16, i16, ptr, ptr, ptr, ptr, ptr }

@server = external global %struct.redisServer, align 8
@.str.18 = private unnamed_addr constant [17 x i8] c"cluster_legacy.c\00", align 1
@.str.300 = private unnamed_addr constant [24 x i8] c"msgblock->refcount >= 0\00", align 1

; Function Attrs: inlinehint nounwind uwtable
define internal zeroext i16 @__bswap_16(i16 noundef zeroext %0) #5 {
  %2 = alloca i16, align 2
  store i16 %0, ptr %2, align 2, !tbaa !63
  %3 = load i16, ptr %2, align 2, !tbaa !63
  %4 = zext i16 %3 to i32
  %5 = ashr i32 %4, 8
  %6 = and i32 %5, 255
  %7 = load i16, ptr %2, align 2, !tbaa !63
  %8 = zext i16 %7 to i32
  %9 = and i32 %8, 255
  %10 = shl i32 %9, 8
  %11 = or i32 %6, %10
  %12 = trunc i32 %11 to i16
  ret i16 %12
}

; Function Attrs: inlinehint nounwind uwtable
define internal i32 @connSetWriteHandlerWithBarrier(ptr noundef %0, ptr noundef %1, i32 noundef %2) #5 {
  %4 = alloca ptr, align 8
  %5 = alloca ptr, align 8
  %6 = alloca i32, align 4
  store ptr %0, ptr %4, align 8, !tbaa !165
  store ptr %1, ptr %5, align 8, !tbaa !47
  store i32 %2, ptr %6, align 4, !tbaa !46
  %7 = load ptr, ptr %4, align 8, !tbaa !165
  %8 = getelementptr inbounds nuw %struct.connection, ptr %7, i32 0, i32 0
  %9 = load ptr, ptr %8, align 8, !tbaa !190
  %10 = getelementptr inbounds nuw %struct.ConnectionType, ptr %9, i32 0, i32 19
  %11 = load ptr, ptr %10, align 8, !tbaa !283
  %12 = load ptr, ptr %4, align 8, !tbaa !165
  %13 = load ptr, ptr %5, align 8, !tbaa !47
  %14 = load i32, ptr %6, align 4, !tbaa !46
  %15 = call i32 %11(ptr noundef %12, ptr noundef %13, i32 noundef %14)
  ret i32 %15
}

; Function Attrs: nounwind uwtable
define internal void @clusterMsgSendBlockDecrRefCount(ptr noundef %0) #0 {
  %2 = alloca ptr, align 8
  %3 = alloca ptr, align 8
  store ptr %0, ptr %2, align 8, !tbaa !47
  call void @llvm.lifetime.start.p0(i64 8, ptr %3) #16
  %4 = load ptr, ptr %2, align 8, !tbaa !47
  store ptr %4, ptr %3, align 8, !tbaa !47
  %5 = load ptr, ptr %3, align 8, !tbaa !47
  %6 = getelementptr inbounds nuw %struct.clusterMsgSendBlock, ptr %5, i32 0, i32 1
  %7 = load i32, ptr %6, align 8, !tbaa !185
  %8 = add nsw i32 %7, -1
  store i32 %8, ptr %6, align 8, !tbaa !185
  %9 = load ptr, ptr %3, align 8, !tbaa !47
  %10 = getelementptr inbounds nuw %struct.clusterMsgSendBlock, ptr %9, i32 0, i32 1
  %11 = load i32, ptr %10, align 8, !tbaa !185
  %12 = icmp sge i32 %11, 0
  %13 = xor i1 %12, true
  %14 = xor i1 %13, true
  %15 = zext i1 %14 to i32
  %16 = sext i32 %15 to i64
  %17 = call i64 @llvm.expect.i64(i64 %16, i64 1)
  %18 = icmp ne i64 %17, 0
  br i1 %18, label %19, label %20

19:                                               ; preds = %1
  br label %22

20:                                               ; preds = %1
  call void @_serverAssert(ptr noundef @.str.300, ptr noundef @.str.18, i32 noundef 1150)
  call void @abort() #18
  unreachable

21:                                               ; No predecessors!
  br label %22

22:                                               ; preds = %21, %19
  %23 = load ptr, ptr %3, align 8, !tbaa !47
  %24 = getelementptr inbounds nuw %struct.clusterMsgSendBlock, ptr %23, i32 0, i32 1
  %25 = load i32, ptr %24, align 8, !tbaa !185
  %26 = icmp eq i32 %25, 0
  br i1 %26, label %27, label %34

27:                                               ; preds = %22
  %28 = load ptr, ptr %3, align 8, !tbaa !47
  %29 = getelementptr inbounds nuw %struct.clusterMsgSendBlock, ptr %28, i32 0, i32 0
  %30 = load i64, ptr %29, align 8, !tbaa !188
  %31 = load i64, ptr getelementptr inbounds nuw (%struct.redisServer, ptr @server, i32 0, i32 143), align 8, !tbaa !181
  %32 = sub i64 %31, %30
  store i64 %32, ptr getelementptr inbounds nuw (%struct.redisServer, ptr @server, i32 0, i32 143), align 8, !tbaa !181
  %33 = load ptr, ptr %3, align 8, !tbaa !47
  call void @zfree(ptr noundef %33)
  br label %34

34:                                               ; preds = %27, %22
  call void @llvm.lifetime.end.p0(i64 8, ptr %3) #16
  ret void
}

; Function Attrs: nounwind uwtable
define dso_local void @clusterSendMessage(ptr noundef %0, ptr noundef %1) #0 {
  %3 = alloca ptr, align 8
  %4 = alloca ptr, align 8
  %5 = alloca i16, align 2
  store ptr %0, ptr %3, align 8, !tbaa !172
  store ptr %1, ptr %4, align 8, !tbaa !47
  %6 = load ptr, ptr %3, align 8, !tbaa !172
  %7 = icmp ne ptr %6, null
  br i1 %7, label %9, label %8

8:                                                ; preds = %2
  br label %64

9:                                                ; preds = %2
  %10 = load ptr, ptr %3, align 8, !tbaa !172
  %11 = getelementptr inbounds nuw %struct.clusterLink, ptr %10, i32 0, i32 2
  %12 = load ptr, ptr %11, align 8, !tbaa !175
  %13 = getelementptr inbounds nuw %struct.list, ptr %12, i32 0, i32 5
  %14 = load i64, ptr %13, align 8, !tbaa !189
  %15 = icmp eq i64 %14, 0
  br i1 %15, label %16, label %27

16:                                               ; preds = %9
  %17 = load ptr, ptr %4, align 8, !tbaa !47
  %18 = getelementptr inbounds nuw %struct.clusterMsgSendBlock, ptr %17, i32 0, i32 2
  %19 = getelementptr inbounds nuw %struct.clusterMsg, ptr %18, i32 0, i32 1
  %20 = load i32, ptr %19, align 4, !tbaa !286
  %21 = icmp ne i32 %20, 0
  br i1 %21, label %22, label %27

22:                                               ; preds = %16
  %23 = load ptr, ptr %3, align 8, !tbaa !172
  %24 = getelementptr inbounds nuw %struct.clusterLink, ptr %23, i32 0, i32 1
  %25 = load ptr, ptr %24, align 8, !tbaa !182
  %26 = call i32 @connSetWriteHandlerWithBarrier(ptr noundef %25, ptr noundef @clusterWriteHandler, i32 noundef 1)
  br label %27

27:                                               ; preds = %22, %16, %9
  %28 = load ptr, ptr %3, align 8, !tbaa !172
  %29 = getelementptr inbounds nuw %struct.clusterLink, ptr %28, i32 0, i32 2
  %30 = load ptr, ptr %29, align 8, !tbaa !175
  %31 = load ptr, ptr %4, align 8, !tbaa !47
  %32 = call ptr @listAddNodeTail(ptr noundef %30, ptr noundef %31)
  %33 = load ptr, ptr %4, align 8, !tbaa !47
  %34 = getelementptr inbounds nuw %struct.clusterMsgSendBlock, ptr %33, i32 0, i32 1
  %35 = load i32, ptr %34, align 8, !tbaa !185
  %36 = add nsw i32 %35, 1
  store i32 %36, ptr %34, align 8, !tbaa !185
  %37 = load ptr, ptr %4, align 8, !tbaa !47
  %38 = getelementptr inbounds nuw %struct.clusterMsgSendBlock, ptr %37, i32 0, i32 0
  %39 = load i64, ptr %38, align 8, !tbaa !188
  %40 = add i64 24, %39
  %41 = load ptr, ptr %3, align 8, !tbaa !172
  %42 = getelementptr inbounds nuw %struct.clusterLink, ptr %41, i32 0, i32 4
  %43 = load i64, ptr %42, align 8, !tbaa !177
  %44 = add i64 %43, %40
  store i64 %44, ptr %42, align 8, !tbaa !177
  %45 = load i64, ptr getelementptr inbounds nuw (%struct.redisServer, ptr @server, i32 0, i32 143), align 8, !tbaa !181
  %46 = add i64 %45, 24
  store i64 %46, ptr getelementptr inbounds nuw (%struct.redisServer, ptr @server, i32 0, i32 143), align 8, !tbaa !181
  call void @llvm.lifetime.start.p0(i64 2, ptr %5) #16
  %47 = load ptr, ptr %4, align 8, !tbaa !47
  %48 = getelementptr inbounds nuw %struct.clusterMsgSendBlock, ptr %47, i32 0, i32 2
  %49 = getelementptr inbounds nuw %struct.clusterMsg, ptr %48, i32 0, i32 4
  %50 = load i16, ptr %49, align 4, !tbaa !287
  %51 = call zeroext i16 @__bswap_16(i16 noundef zeroext %50)
  store i16 %51, ptr %5, align 2, !tbaa !63
  %52 = load i16, ptr %5, align 2, !tbaa !63
  %53 = zext i16 %52 to i32
  %54 = icmp slt i32 %53, 11
  br i1 %54, label %55, label %63

55:                                               ; preds = %27
  %56 = load ptr, ptr getelementptr inbounds nuw (%struct.redisServer, ptr @server, i32 0, i32 385), align 8, !tbaa !57
  %57 = getelementptr inbounds nuw %struct.clusterState, ptr %56, i32 0, i32 23
  %58 = load i16, ptr %5, align 2, !tbaa !63
  %59 = zext i16 %58 to i64
  %60 = getelementptr inbounds nuw [11 x i64], ptr %57, i64 0, i64 %59
  %61 = load i64, ptr %60, align 8, !tbaa !142
  %62 = add nsw i64 %61, 1
  store i64 %62, ptr %60, align 8, !tbaa !142
  br label %63

63:                                               ; preds = %55, %27
  call void @llvm.lifetime.end.p0(i64 2, ptr %5) #16
  br label %64

64:                                               ; preds = %63, %8
  ret void
}

; Function Attrs: nounwind uwtable
define dso_local void @clusterSendUpdate(ptr noundef %0, ptr noundef %1) #0 {
  %3 = alloca ptr, align 8
  %4 = alloca ptr, align 8
  %5 = alloca i32, align 4
  %6 = alloca ptr, align 8
  %7 = alloca ptr, align 8
  %8 = alloca i32, align 4
  store ptr %0, ptr %3, align 8, !tbaa !172
  store ptr %1, ptr %4, align 8, !tbaa !5
  %9 = load ptr, ptr %3, align 8, !tbaa !172
  %10 = icmp eq ptr %9, null
  br i1 %10, label %11, label %12

11:                                               ; preds = %2
  br label %80

12:                                               ; preds = %2
  call void @llvm.lifetime.start.p0(i64 4, ptr %5) #16
  store i32 4352, ptr %5, align 4, !tbaa !46
  call void @llvm.lifetime.start.p0(i64 8, ptr %6) #16
  %13 = load i32, ptr %5, align 4, !tbaa !46
  %14 = call ptr @createClusterMsgSendBlock(i32 noundef 7, i32 noundef %13)
  store ptr %14, ptr %6, align 8, !tbaa !47
  call void @llvm.lifetime.start.p0(i64 8, ptr %7) #16
  %15 = load ptr, ptr %6, align 8, !tbaa !47
  %16 = getelementptr inbounds nuw %struct.clusterMsgSendBlock, ptr %15, i32 0, i32 2
  store ptr %16, ptr %7, align 8, !tbaa !47
  %17 = load ptr, ptr %7, align 8, !tbaa !47
  %18 = getelementptr inbounds nuw %struct.clusterMsg, ptr %17, i32 0, i32 20
  %19 = getelementptr inbounds nuw %struct.anon.3, ptr %18, i32 0, i32 0
  %20 = getelementptr inbounds nuw %struct.clusterMsgDataUpdate, ptr %19, i32 0, i32 1
  %21 = getelementptr inbounds [40 x i8], ptr %20, i64 0, i64 0
  %22 = load ptr, ptr %4, align 8, !tbaa !5
  %23 = getelementptr inbounds nuw %struct._clusterNode, ptr %22, i32 0, i32 1
  %24 = getelementptr inbounds [40 x i8], ptr %23, i64 0, i64 0
  call void @llvm.memcpy.p0.p0.i64(ptr align 8 %21, ptr align 8 %24, i64 40, i1 false)
  %25 = load ptr, ptr %4, align 8, !tbaa !5
  %26 = getelementptr inbounds nuw %struct._clusterNode, ptr %25, i32 0, i32 4
  %27 = load i64, ptr %26, align 8, !tbaa !92
  %28 = call i64 @intrev64(i64 noundef %27)
  %29 = load ptr, ptr %7, align 8, !tbaa !47
  %30 = getelementptr inbounds nuw %struct.clusterMsg, ptr %29, i32 0, i32 20
  %31 = getelementptr inbounds nuw %struct.anon.3, ptr %30, i32 0, i32 0
  %32 = getelementptr inbounds nuw %struct.clusterMsgDataUpdate, ptr %31, i32 0, i32 0
  store i64 %28, ptr %32, align 8, !tbaa !54
  %33 = load ptr, ptr %7, align 8, !tbaa !47
  %34 = getelementptr inbounds nuw %struct.clusterMsg, ptr %33, i32 0, i32 20
  %35 = getelementptr inbounds nuw %struct.anon.3, ptr %34, i32 0, i32 0
  %36 = getelementptr inbounds nuw %struct.clusterMsgDataUpdate, ptr %35, i32 0, i32 2
  %37 = getelementptr inbounds [2048 x i8], ptr %36, i64 0, i64 0
  %38 = load ptr, ptr %4, align 8, !tbaa !5
  %39 = getelementptr inbounds nuw %struct._clusterNode, ptr %38, i32 0, i32 5
  %40 = getelementptr inbounds [2048 x i8], ptr %39, i64 0, i64 0
  call void @llvm.memcpy.p0.p0.i64(ptr align 8 %37, ptr align 8 %40, i64 2048, i1 false)
  call void @llvm.lifetime.start.p0(i64 4, ptr %8) #16
  store i32 0, ptr %8, align 4, !tbaa !46
  br label %41

41:                                               ; preds = %73, %12
  %42 = load i32, ptr %8, align 4, !tbaa !46
  %43 = zext i32 %42 to i64
  %44 = icmp ult i64 %43, 2048
  br i1 %44, label %46, label %45

45:                                               ; preds = %41
  call void @llvm.lifetime.end.p0(i64 4, ptr %8) #16
  br label %76

46:                                               ; preds = %41
  %47 = load ptr, ptr %7, align 8, !tbaa !47
  %48 = getelementptr inbounds nuw %struct.clusterMsg, ptr %47, i32 0, i32 20
  %49 = getelementptr inbounds nuw %struct.anon.3, ptr %48, i32 0, i32 0
  %50 = getelementptr inbounds nuw %struct.clusterMsgDataUpdate, ptr %49, i32 0, i32 2
  %51 = load i32, ptr %8, align 4, !tbaa !46
  %52 = zext i32 %51 to i64
  %53 = getelementptr inbounds nuw [2048 x i8], ptr %50, i64 0, i64 %52
  %54 = load i8, ptr %53, align 1, !tbaa !54
  %55 = zext i8 %54 to i32
  %56 = load ptr, ptr getelementptr inbounds nuw (%struct.redisServer, ptr @server, i32 0, i32 385), align 8, !tbaa !57
  %57 = getelementptr inbounds nuw %struct.clusterState, ptr %56, i32 0, i32 27
  %58 = load i32, ptr %8, align 4, !tbaa !46
  %59 = zext i32 %58 to i64
  %60 = getelementptr inbounds nuw [2048 x i8], ptr %57, i64 0, i64 %59
  %61 = load i8, ptr %60, align 1, !tbaa !54
  %62 = zext i8 %61 to i32
  %63 = xor i32 %62, -1
  %64 = and i32 %55, %63
  %65 = trunc i32 %64 to i8
  %66 = load ptr, ptr %7, align 8, !tbaa !47
  %67 = getelementptr inbounds nuw %struct.clusterMsg, ptr %66, i32 0, i32 20
  %68 = getelementptr inbounds nuw %struct.anon.3, ptr %67, i32 0, i32 0
  %69 = getelementptr inbounds nuw %struct.clusterMsgDataUpdate, ptr %68, i32 0, i32 2
  %70 = load i32, ptr %8, align 4, !tbaa !46
  %71 = zext i32 %70 to i64
  %72 = getelementptr inbounds nuw [2048 x i8], ptr %69, i64 0, i64 %71
  store i8 %65, ptr %72, align 1, !tbaa !54
  br label %73

73:                                               ; preds = %46
  %74 = load i32, ptr %8, align 4, !tbaa !46
  %75 = add i32 %74, 1
  store i32 %75, ptr %8, align 4, !tbaa !46
  br label %41, !llvm.loop !277

76:                                               ; preds = %45
  %77 = load ptr, ptr %3, align 8, !tbaa !172
  %78 = load ptr, ptr %6, align 8, !tbaa !47
  call void @clusterSendMessage(ptr noundef %77, ptr noundef %78)
  %79 = load ptr, ptr %6, align 8, !tbaa !47
  call void @clusterMsgSendBlockDecrRefCount(ptr noundef %79)
  call void @llvm.lifetime.end.p0(i64 8, ptr %7) #16
  call void @llvm.lifetime.end.p0(i64 8, ptr %6) #16
  call void @llvm.lifetime.end.p0(i64 4, ptr %5) #16
  br label %80

80:                                               ; preds = %76, %11
  ret void
}