; Function Attrs: nounwind uwtable
define dso_local void @clusterSendUpdate(ptr noundef captures(address_is_null) %0, ptr noundef readonly captures(none) %1) local_unnamed_addr #3 {
  %3 = icmp eq ptr %0, null
  br i1 %3, label %clusterMsgSendBlockDecrRefCount.exit, label %4

4:                                                ; preds = %2
  %5 = tail call fastcc ptr @createClusterMsgSendBlock(i32 noundef 7, i32 noundef 4352)
  %6 = getelementptr inbounds nuw i8, ptr %5, i64 2272
  %7 = getelementptr inbounds nuw i8, ptr %5, i64 2280
  %8 = getelementptr inbounds nuw i8, ptr %1, i64 8
  tail call void @llvm.memcpy.p0.p0.i64(ptr noundef nonnull align 8 dereferenceable(40) %7, ptr noundef nonnull align 8 dereferenceable(40) %8, i64 40, i1 false)
  %9 = getelementptr inbounds nuw i8, ptr %1, i64 96
  %10 = load i64, ptr %9, align 8, !tbaa !89
  %11 = tail call i64 @intrev64(i64 noundef %10) #33
  store i64 %11, ptr %6, align 8, !tbaa !50
  %12 = getelementptr inbounds nuw i8, ptr %5, i64 2320
  %13 = getelementptr inbounds nuw i8, ptr %1, i64 104
  tail call void @llvm.memcpy.p0.p0.i64(ptr noundef nonnull align 8 dereferenceable(2048) %12, ptr noundef nonnull align 8 dereferenceable(2048) %13, i64 2048, i1 false)
  br label %58

14:                                               ; preds = %58
  %15 = getelementptr inbounds nuw i8, ptr %0, i64 16
  %16 = load ptr, ptr %15, align 8, !tbaa !154
  %17 = getelementptr inbounds nuw i8, ptr %16, i64 40
  %18 = load i64, ptr %17, align 8, !tbaa !169
  %19 = icmp eq i64 %18, 0
  br i1 %19, label %20, label %30

20:                                               ; preds = %14
  %21 = getelementptr inbounds nuw i8, ptr %5, i64 20
  %22 = load i32, ptr %21, align 4, !tbaa !252
  %.not11.i = icmp eq i32 %22, 0
  br i1 %.not11.i, label %30, label %23

23:                                               ; preds = %20
  %24 = getelementptr inbounds nuw i8, ptr %0, i64 8
  %25 = load ptr, ptr %24, align 8, !tbaa !161
  %26 = load ptr, ptr %25, align 8, !tbaa !139
  %27 = getelementptr inbounds nuw i8, ptr %26, i64 152
  %28 = load ptr, ptr %27, align 8, !tbaa !248
  %29 = tail call i32 %28(ptr noundef nonnull %25, ptr noundef nonnull @clusterWriteHandler, i32 noundef 1) #33
  %.pre.i = load ptr, ptr %15, align 8, !tbaa !154
  br label %30

30:                                               ; preds = %23, %20, %14
  %31 = phi ptr [ %.pre.i, %23 ], [ %16, %20 ], [ %16, %14 ]
  %32 = tail call ptr @listAddNodeTail(ptr noundef %31, ptr noundef nonnull %5) #33
  %33 = getelementptr inbounds nuw i8, ptr %5, i64 8
  %34 = load i32, ptr %33, align 8, !tbaa !165
  %35 = load i64, ptr %5, align 8, !tbaa !168
  %36 = add i64 %35, 24
  %37 = getelementptr inbounds nuw i8, ptr %0, i64 32
  %38 = load i64, ptr %37, align 8, !tbaa !156
  %39 = add i64 %36, %38
  store i64 %39, ptr %37, align 8, !tbaa !156
  %40 = load i64, ptr getelementptr inbounds nuw (i8, ptr @server, i64 2984), align 8, !tbaa !160
  %41 = add i64 %40, 24
  store i64 %41, ptr getelementptr inbounds nuw (i8, ptr @server, i64 2984), align 8, !tbaa !160
  %42 = getelementptr inbounds nuw i8, ptr %5, i64 28
  %43 = load i16, ptr %42, align 4, !tbaa !249
  %rev.i.i = tail call noundef i16 @llvm.bswap.i16(i16 %43)
  %44 = icmp ult i16 %rev.i.i, 11
  br i1 %44, label %45, label %clusterSendMessage.exit

45:                                               ; preds = %30
  %46 = load ptr, ptr getelementptr inbounds nuw (i8, ptr @server, i64 7920), align 8, !tbaa !56
  %47 = getelementptr inbounds nuw i8, ptr %46, i64 393392
  %48 = zext nneg i16 %rev.i.i to i64
  %49 = getelementptr inbounds nuw [11 x i64], ptr %47, i64 0, i64 %48
  %50 = load i64, ptr %49, align 8, !tbaa !229
  %51 = add nsw i64 %50, 1
  store i64 %51, ptr %49, align 8, !tbaa !229
  br label %clusterSendMessage.exit

clusterSendMessage.exit:                          ; preds = %30, %45
  %52 = icmp sgt i32 %34, -1
  br i1 %52, label %54, label %53, !prof !62

53:                                               ; preds = %clusterSendMessage.exit
  tail call void @_serverAssert(ptr noundef nonnull @.str.300, ptr noundef nonnull @.str.18, i32 noundef 1150) #33
  tail call void @abort() #35
  unreachable

54:                                               ; preds = %clusterSendMessage.exit
  %55 = icmp eq i32 %34, 0
  br i1 %55, label %56, label %clusterMsgSendBlockDecrRefCount.exit

56:                                               ; preds = %54
  %57 = sub i64 %41, %35
  store i64 %57, ptr getelementptr inbounds nuw (i8, ptr @server, i64 2984), align 8, !tbaa !160
  tail call void @zfree(ptr noundef nonnull %5) #33
  br label %clusterMsgSendBlockDecrRefCount.exit

58:                                               ; preds = %4, %58
  %indvars.iv = phi i64 [ 0, %4 ], [ %indvars.iv.next, %58 ]
  %59 = getelementptr inbounds nuw [2048 x i8], ptr %12, i64 0, i64 %indvars.iv
  %60 = load i8, ptr %59, align 1, !tbaa !50
  %61 = load ptr, ptr getelementptr inbounds nuw (i8, ptr @server, i64 7920), align 8, !tbaa !56
  %62 = getelementptr inbounds nuw i8, ptr %61, i64 393584
  %63 = getelementptr inbounds nuw [2048 x i8], ptr %62, i64 0, i64 %indvars.iv
  %64 = load i8, ptr %63, align 1, !tbaa !50
  %65 = xor i8 %64, -1
  %66 = and i8 %60, %65
  store i8 %66, ptr %59, align 1, !tbaa !50
  %indvars.iv.next = add nuw nsw i64 %indvars.iv, 1
  %exitcond.not = icmp eq i64 %indvars.iv.next, 2048
  br i1 %exitcond.not, label %14, label %58, !llvm.loop !253

clusterMsgSendBlockDecrRefCount.exit:             ; preds = %56, %54, %2
  ret void
}